; Function Attrs: nounwind uwtable
define noalias noundef ptr @Aig_ManRegPartitionLinear(ptr noundef %0, i32 noundef %1) local_unnamed_addr #0 {
  %3 = tail call ptr @Aig_ManRegPartitionTraverse(ptr noundef %0)
  %4 = getelementptr inbounds nuw i8, ptr %3, i64 8
  %5 = load ptr, ptr %4, align 8, !tbaa !19
  %.not.i = icmp eq ptr %5, null
  br i1 %.not.i, label %Vec_PtrFree.exit, label %6

6:                                                ; preds = %2
  tail call void @free(ptr noundef nonnull %5) #12
  br label %Vec_PtrFree.exit

Vec_PtrFree.exit:                                 ; preds = %2, %6
  tail call void @free(ptr noundef nonnull %3) #12
  ret ptr null
}